; Function Attrs: nounwind uwtable
define void @Saig_ManBmcMappingTest(ptr noundef %0) local_unnamed_addr #0 {
  %2 = tail call ptr @Cnf_DeriveMappingArray(ptr noundef %0) #24
  tail call void @Saig_ManBmcWriteBlif(ptr noundef %0, ptr noundef %2, ptr noundef nonnull @.str.19)
  %3 = getelementptr inbounds nuw i8, ptr %2, i64 8
  %4 = load ptr, ptr %3, align 8, !tbaa !71
  %.not.i = icmp eq ptr %4, null
  br i1 %.not.i, label %Vec_IntFree.exit, label %5

5:                                                ; preds = %1
  tail call void @free(ptr noundef nonnull %4) #24
  br label %Vec_IntFree.exit

Vec_IntFree.exit:                                 ; preds = %1, %5
  tail call void @free(ptr noundef nonnull %2) #24
  ret void
}